; Function Attrs: nounwind uwtable
define dso_local void @EventTriggerDDLCommandStart(ptr noundef %0) local_unnamed_addr #0 {
  %2 = alloca %struct.EventTriggerData, align 8
  call void @llvm.lifetime.start.p0(i64 32, ptr nonnull %2) #16
  %3 = load i8, ptr @IsUnderPostmaster, align 1, !range !9, !noundef !10
  %4 = trunc nuw i8 %3 to i1
  br i1 %4, label %5, label %EventTriggerCommonSetup.exit.thread

5:                                                ; preds = %1
  %6 = load i8, ptr @event_triggers, align 1, !range !9, !noundef !10
  %7 = trunc nuw i8 %6 to i1
  br i1 %7, label %8, label %EventTriggerCommonSetup.exit.thread

8:                                                ; preds = %5
  %9 = tail call ptr @EventCacheLookup(i32 noundef 0) #16
  %10 = icmp eq ptr %9, null
  br i1 %10, label %EventTriggerCommonSetup.exit.thread, label %11

11:                                               ; preds = %8
  %12 = tail call i32 @CreateCommandTag(ptr noundef %0) #16
  %13 = getelementptr inbounds nuw i8, ptr %9, i64 4
  %14 = load i32, ptr %13, align 4
  %.not31.i = icmp sgt i32 %14, 0
  br i1 %.not31.i, label %.lr.ph.i, label %EventTriggerCommonSetup.exit.thread

.lr.ph.i:                                         ; preds = %11
  %15 = getelementptr inbounds nuw i8, ptr %9, i64 16
  br label %.lr.ph.split.i

._crit_edge.i:                                    ; preds = %filter_event_trigger.exit.thread.i
  %16 = icmp eq ptr %.1.i, null
  br i1 %16, label %EventTriggerCommonSetup.exit.thread, label %38

.lr.ph.split.i:                                   ; preds = %filter_event_trigger.exit.thread.i, %.lr.ph.i
  %indvars.iv.i = phi i64 [ %indvars.iv.next.i, %filter_event_trigger.exit.thread.i ], [ 0, %.lr.ph.i ]
  %.02532.i = phi ptr [ %.1.i, %filter_event_trigger.exit.thread.i ], [ null, %.lr.ph.i ]
  %17 = load ptr, ptr %15, align 8
  %18 = getelementptr inbounds nuw %union.ListCell, ptr %17, i64 %indvars.iv.i
  %19 = load ptr, ptr %18, align 8
  %20 = load i32, ptr @SessionReplicationRole, align 4
  %21 = icmp eq i32 %20, 1
  %22 = getelementptr inbounds nuw i8, ptr %19, i64 4
  %23 = load i8, ptr %22, align 4
  br i1 %21, label %24, label %26

24:                                               ; preds = %.lr.ph.split.i
  %25 = icmp eq i8 %23, 79
  br i1 %25, label %filter_event_trigger.exit.thread.i, label %28

26:                                               ; preds = %.lr.ph.split.i
  %27 = icmp eq i8 %23, 82
  br i1 %27, label %filter_event_trigger.exit.thread.i, label %28

28:                                               ; preds = %26, %24
  %29 = getelementptr inbounds nuw i8, ptr %19, i64 8
  %30 = load ptr, ptr %29, align 8
  %31 = icmp eq ptr %30, null
  br i1 %31, label %filter_event_trigger.exit.i, label %32

32:                                               ; preds = %28
  %33 = tail call zeroext i1 @bms_is_member(i32 noundef %12, ptr noundef nonnull %30) #16
  br i1 %33, label %filter_event_trigger.exit.i, label %filter_event_trigger.exit.thread.i

filter_event_trigger.exit.i:                      ; preds = %32, %28
  %34 = load i32, ptr %19, align 8
  %35 = tail call ptr @lappend_oid(ptr noundef %.02532.i, i32 noundef %34) #16
  br label %filter_event_trigger.exit.thread.i

filter_event_trigger.exit.thread.i:               ; preds = %filter_event_trigger.exit.i, %32, %26, %24
  %.1.i = phi ptr [ %35, %filter_event_trigger.exit.i ], [ %.02532.i, %24 ], [ %.02532.i, %26 ], [ %.02532.i, %32 ]
  %indvars.iv.next.i = add nuw nsw i64 %indvars.iv.i, 1
  %36 = load i32, ptr %13, align 4
  %37 = sext i32 %36 to i64
  %.not.i = icmp slt i64 %indvars.iv.next.i, %37
  br i1 %.not.i, label %.lr.ph.split.i, label %._crit_edge.i, !llvm.loop !11

38:                                               ; preds = %._crit_edge.i
  store i32 440, ptr %2, align 8
  %39 = getelementptr inbounds nuw i8, ptr %2, i64 8
  store ptr @.str.3, ptr %39, align 8
  %40 = getelementptr inbounds nuw i8, ptr %2, i64 16
  store ptr %0, ptr %40, align 8
  %41 = getelementptr inbounds nuw i8, ptr %2, i64 24
  store i32 %12, ptr %41, align 8
  call fastcc void @EventTriggerInvoke(ptr noundef %.1.i, ptr noundef %2)
  call void @list_free(ptr noundef nonnull %.1.i) #16
  call void @CommandCounterIncrement() #16
  br label %EventTriggerCommonSetup.exit.thread

EventTriggerCommonSetup.exit.thread:              ; preds = %11, %._crit_edge.i, %8, %1, %5, %38
  call void @llvm.lifetime.end.p0(i64 32, ptr nonnull %2) #16
  ret void
}